target datalayout = "e-m:e-p270:32:32-p271:32:32-p272:64:64-i64:64-i128:128-f80:128-n8:16:32:64-S128"
target triple = "x86_64-pc-linux-gnu"

%struct.H5VL_connector_t = type { ptr, i64, ptr, ptr }
%struct.H5VL_object_t = type { ptr, ptr, i64 }

@.str = private unnamed_addr constant [106 x i8] c"generated/home/dtcxzyw/WorkSpace/Projects/compilers/llvm-opt-benchmark/bench/hdf5/hdf5/src/H5VLcallback.c\00", align 1
@H5E_CANTSET_g = external global i64, align 8
@H5E_VOL_g = external global i64, align 8
@H5VL_init_g = external global i8, align 1
@H5_libterm_g = external global i8, align 1
@H5E_FUNC_g = external global i64, align 8
@H5E_CANTINIT_g = external global i64, align 8
@.str.5 = private unnamed_addr constant [32 x i8] c"interface initialization failed\00", align 1
@.str.24 = private unnamed_addr constant [27 x i8] c"can't set VOL wrapper info\00", align 1
@H5E_CANTRESET_g = external global i64, align 8
@.str.26 = private unnamed_addr constant [29 x i8] c"can't reset VOL wrapper info\00", align 1
@H5E_CANTOPERATE_g = external global i64, align 8
@__func__.H5VL_optional = private unnamed_addr constant [14 x i8] c"H5VL_optional\00", align 1
@.str.171 = private unnamed_addr constant [36 x i8] c"unable to execute optional callback\00", align 1

; Function Attrs: nounwind uwtable
define i32 @H5VL_optional(ptr noundef %0, ptr noundef %1, i64 noundef %2, ptr noundef %3) #0 {
  %5 = alloca ptr, align 8
  %6 = alloca ptr, align 8
  %7 = alloca i64, align 8
  %8 = alloca ptr, align 8
  %9 = alloca i8, align 1
  %10 = alloca i32, align 4
  %11 = alloca i8, align 1
  store ptr %0, ptr %5, align 8, !tbaa !58
  store ptr %1, ptr %6, align 8, !tbaa !75
  store i64 %2, ptr %7, align 8, !tbaa !3
  store ptr %3, ptr %8, align 8, !tbaa !42
  call void @llvm.lifetime.start.p0(i64 1, ptr %9) #8
  store i8 0, ptr %9, align 1, !tbaa !9
  call void @llvm.lifetime.start.p0(i64 4, ptr %10) #8
  store i32 0, ptr %10, align 4, !tbaa !7
  call void @llvm.lifetime.start.p0(i64 1, ptr %11) #8
  store i8 0, ptr %11, align 1, !tbaa !9
  %12 = load i8, ptr @H5VL_init_g, align 1, !tbaa !9, !range !14, !noundef !15
  %13 = trunc i8 %12 to i1
  br i1 %13, label %18, label %14

14:                                               ; preds = %4
  %15 = load i8, ptr @H5_libterm_g, align 1, !tbaa !9, !range !14, !noundef !15
  %16 = trunc i8 %15 to i1
  %17 = xor i1 %16, true
  br label %18

18:                                               ; preds = %14, %4
  %19 = phi i1 [ false, %4 ], [ %17, %14 ]
  %20 = xor i1 %19, true
  %21 = xor i1 %20, true
  %22 = zext i1 %21 to i32
  %23 = sext i32 %22 to i64
  %24 = call i64 @llvm.expect.i64(i64 %23, i64 0)
  %25 = icmp ne i64 %24, 0
  br i1 %25, label %26, label %49

26:                                               ; preds = %18
  store i8 1, ptr @H5VL_init_g, align 1, !tbaa !9
  %27 = call i32 @H5VL__init_package()
  %28 = icmp slt i32 %27, 0
  br i1 %28, label %29, label %48

29:                                               ; preds = %26
  store i8 0, ptr @H5VL_init_g, align 1, !tbaa !9
  br label %30

30:                                               ; preds = %29
  br label %31

31:                                               ; preds = %30
  br label %32

32:                                               ; preds = %31
  %33 = load i64, ptr @H5E_FUNC_g, align 8, !tbaa !3
  %34 = load i64, ptr @H5E_CANTINIT_g, align 8, !tbaa !3
  %35 = call i32 (ptr, ptr, i32, i64, i64, ptr, ...) @H5E_printf_stack(ptr noundef @.str, ptr noundef @__func__.H5VL_optional, i32 noundef 8193, i64 noundef %33, i64 noundef %34, ptr noundef @.str.5)
  br label %36

36:                                               ; preds = %32
  br label %37

37:                                               ; preds = %36
  store i8 1, ptr %11, align 1, !tbaa !9
  %38 = load i8, ptr %11, align 1, !tbaa !9, !range !14, !noundef !15
  %39 = trunc i8 %38 to i1
  %40 = zext i1 %39 to i8
  store i8 %40, ptr %11, align 1, !tbaa !9
  br label %41

41:                                               ; preds = %37
  br label %42

42:                                               ; preds = %41
  br label %43

43:                                               ; preds = %42
  store i32 -1, ptr %10, align 4, !tbaa !7
  br label %109

44:                                               ; No predecessors!
  br label %45

45:                                               ; preds = %44
  br label %46

46:                                               ; preds = %45
  br label %47

47:                                               ; preds = %46
  br label %48

48:                                               ; preds = %47, %26
  br label %49

49:                                               ; preds = %48, %18
  %50 = load i8, ptr @H5VL_init_g, align 1, !tbaa !9, !range !14, !noundef !15
  %51 = trunc i8 %50 to i1
  br i1 %51, label %56, label %52

52:                                               ; preds = %49
  %53 = load i8, ptr @H5_libterm_g, align 1, !tbaa !9, !range !14, !noundef !15
  %54 = trunc i8 %53 to i1
  %55 = xor i1 %54, true
  br label %56

56:                                               ; preds = %52, %49
  %57 = phi i1 [ true, %49 ], [ %55, %52 ]
  %58 = xor i1 %57, true
  %59 = xor i1 %58, true
  %60 = zext i1 %59 to i32
  %61 = sext i32 %60 to i64
  %62 = call i64 @llvm.expect.i64(i64 %61, i64 1)
  %63 = icmp ne i64 %62, 0
  br i1 %63, label %64, label %132

64:                                               ; preds = %56
  %65 = load ptr, ptr %5, align 8, !tbaa !58
  %66 = call i32 @H5VL_set_vol_wrapper(ptr noundef %65)
  %67 = icmp slt i32 %66, 0
  br i1 %67, label %68, label %87

68:                                               ; preds = %64
  br label %69

69:                                               ; preds = %68
  br label %70

70:                                               ; preds = %69
  br label %71

71:                                               ; preds = %70
  %72 = load i64, ptr @H5E_VOL_g, align 8, !tbaa !3
  %73 = load i64, ptr @H5E_CANTSET_g, align 8, !tbaa !3
  %74 = call i32 (ptr, ptr, i32, i64, i64, ptr, ...) @H5E_printf_stack(ptr noundef @.str, ptr noundef @__func__.H5VL_optional, i32 noundef 8197, i64 noundef %72, i64 noundef %73, ptr noundef @.str.24)
  br label %75

75:                                               ; preds = %71
  br label %76

76:                                               ; preds = %75
  store i8 1, ptr %11, align 1, !tbaa !9
  %77 = load i8, ptr %11, align 1, !tbaa !9, !range !14, !noundef !15
  %78 = trunc i8 %77 to i1
  %79 = zext i1 %78 to i8
  store i8 %79, ptr %11, align 1, !tbaa !9
  br label %80

80:                                               ; preds = %76
  br label %81

81:                                               ; preds = %80
  br label %82

82:                                               ; preds = %81
  store i32 -1, ptr %10, align 4, !tbaa !7
  br label %109

83:                                               ; No predecessors!
  br label %84

84:                                               ; preds = %83
  br label %85

85:                                               ; preds = %84
  br label %86

86:                                               ; preds = %85
  br label %87

87:                                               ; preds = %86, %64
  store i8 1, ptr %9, align 1, !tbaa !9
  %88 = load ptr, ptr %5, align 8, !tbaa !58
  %89 = getelementptr inbounds nuw %struct.H5VL_object_t, ptr %88, i32 0, i32 0
  %90 = load ptr, ptr %89, align 8, !tbaa !62
  %91 = load ptr, ptr %5, align 8, !tbaa !58
  %92 = getelementptr inbounds nuw %struct.H5VL_object_t, ptr %91, i32 0, i32 1
  %93 = load ptr, ptr %92, align 8, !tbaa !64
  %94 = getelementptr inbounds nuw %struct.H5VL_connector_t, ptr %93, i32 0, i32 0
  %95 = load ptr, ptr %94, align 8, !tbaa !16
  %96 = load ptr, ptr %6, align 8, !tbaa !75
  %97 = load i64, ptr %7, align 8, !tbaa !3
  %98 = load ptr, ptr %8, align 8, !tbaa !42
  %99 = call i32 @H5VL__optional(ptr noundef %90, ptr noundef %95, ptr noundef %96, i64 noundef %97, ptr noundef %98)
  store i32 %99, ptr %10, align 4, !tbaa !7
  %100 = icmp slt i32 %99, 0
  br i1 %100, label %101, label %108

101:                                              ; preds = %87
  br label %102

102:                                              ; preds = %101
  %103 = load i64, ptr @H5E_VOL_g, align 8, !tbaa !3
  %104 = load i64, ptr @H5E_CANTOPERATE_g, align 8, !tbaa !3
  %105 = call i32 (ptr, ptr, i32, i64, i64, ptr, ...) @H5E_printf_stack(ptr noundef @.str, ptr noundef @__func__.H5VL_optional, i32 noundef 8202, i64 noundef %103, i64 noundef %104, ptr noundef @.str.171)
  br label %106

106:                                              ; preds = %102
  br label %107

107:                                              ; preds = %106
  br label %108

108:                                              ; preds = %107, %87
  br label %109

109:                                              ; preds = %108, %82, %43
  %110 = load i8, ptr %9, align 1, !tbaa !9, !range !14, !noundef !15
  %111 = trunc i8 %110 to i1
  br i1 %111, label %112, label %131

112:                                              ; preds = %109
  %113 = call i32 @H5VL_reset_vol_wrapper()
  %114 = icmp slt i32 %113, 0
  br i1 %114, label %115, label %131

115:                                              ; preds = %112
  br label %116

116:                                              ; preds = %115
  br label %117

117:                                              ; preds = %116
  br label %118

118:                                              ; preds = %117
  %119 = load i64, ptr @H5E_VOL_g, align 8, !tbaa !3
  %120 = load i64, ptr @H5E_CANTRESET_g, align 8, !tbaa !3
  %121 = call i32 (ptr, ptr, i32, i64, i64, ptr, ...) @H5E_printf_stack(ptr noundef @.str, ptr noundef @__func__.H5VL_optional, i32 noundef 8207, i64 noundef %119, i64 noundef %120, ptr noundef @.str.26)
  br label %122

122:                                              ; preds = %118
  br label %123

123:                                              ; preds = %122
  store i8 1, ptr %11, align 1, !tbaa !9
  %124 = load i8, ptr %11, align 1, !tbaa !9, !range !14, !noundef !15
  %125 = trunc i8 %124 to i1
  %126 = zext i1 %125 to i8
  store i8 %126, ptr %11, align 1, !tbaa !9
  br label %127

127:                                              ; preds = %123
  br label %128

128:                                              ; preds = %127
  store i32 -1, ptr %10, align 4, !tbaa !7
  br label %129

129:                                              ; preds = %128
  br label %130

130:                                              ; preds = %129
  br label %131

131:                                              ; preds = %130, %112, %109
  br label %132

132:                                              ; preds = %131, %56
  %133 = load i32, ptr %10, align 4, !tbaa !7
  call void @llvm.lifetime.end.p0(i64 1, ptr %11) #8
  call void @llvm.lifetime.end.p0(i64 4, ptr %10) #8
  call void @llvm.lifetime.end.p0(i64 1, ptr %9) #8
  ret i32 %133
}