; Function Attrs: nounwind uwtable
define i32 @H5VL_optional(ptr noundef %0, ptr noundef %1, i64 noundef %2, ptr noundef %3) local_unnamed_addr #0 {
  %5 = load i8, ptr @H5VL_init_g, align 1, !tbaa !33, !range !35, !noundef !36
  %6 = trunc nuw i8 %5 to i1
  %7 = load i8, ptr @H5_libterm_g, align 1, !range !35
  %8 = trunc nuw i8 %7 to i1
  %9 = select i1 %6, i1 true, i1 %8
  br i1 %9, label %17, label %10, !prof !37

10:                                               ; preds = %4
  store i8 1, ptr @H5VL_init_g, align 1, !tbaa !33
  %11 = tail call i32 @H5VL__init_package() #7
  %12 = icmp slt i32 %11, 0
  br i1 %12, label %13, label %._crit_edge

._crit_edge:                                      ; preds = %10
  %.pre = load i8, ptr @H5VL_init_g, align 1, !tbaa !33, !range !35
  %.pre16 = load i8, ptr @H5_libterm_g, align 1, !range !35
  %.pre17 = trunc nuw i8 %.pre to i1
  %.pre18 = trunc nuw i8 %.pre16 to i1
  br label %17

13:                                               ; preds = %10
  store i8 0, ptr @H5VL_init_g, align 1, !tbaa !33
  %14 = load i64, ptr @H5E_FUNC_g, align 8, !tbaa !3
  %15 = load i64, ptr @H5E_CANTINIT_g, align 8, !tbaa !3
  %16 = tail call i32 (ptr, ptr, i32, i64, i64, ptr, ...) @H5E_printf_stack(ptr noundef nonnull @.str, ptr noundef nonnull @__func__.H5VL_optional, i32 noundef 8193, i64 noundef %14, i64 noundef %15, ptr noundef nonnull @.str.5) #7
  br label %45

17:                                               ; preds = %._crit_edge, %4
  %.pre-phi19 = phi i1 [ %.pre18, %._crit_edge ], [ %8, %4 ]
  %.pre-phi = phi i1 [ %.pre17, %._crit_edge ], [ %6, %4 ]
  %18 = xor i1 %.pre-phi19, true
  %19 = select i1 %.pre-phi, i1 true, i1 %18
  br i1 %19, label %20, label %45, !prof !37

20:                                               ; preds = %17
  %21 = tail call i32 @H5VL_set_vol_wrapper(ptr noundef %0) #7
  %22 = icmp slt i32 %21, 0
  br i1 %22, label %23, label %27

23:                                               ; preds = %20
  %24 = load i64, ptr @H5E_VOL_g, align 8, !tbaa !3
  %25 = load i64, ptr @H5E_CANTSET_g, align 8, !tbaa !3
  %26 = tail call i32 (ptr, ptr, i32, i64, i64, ptr, ...) @H5E_printf_stack(ptr noundef nonnull @.str, ptr noundef nonnull @__func__.H5VL_optional, i32 noundef 8197, i64 noundef %24, i64 noundef %25, ptr noundef nonnull @.str.24) #7
  br label %45

27:                                               ; preds = %20
  %28 = load ptr, ptr %0, align 8, !tbaa !55
  %29 = getelementptr inbounds nuw i8, ptr %0, i64 8
  %30 = load ptr, ptr %29, align 8, !tbaa !57
  %31 = load ptr, ptr %30, align 8, !tbaa !7
  %32 = tail call fastcc i32 @H5VL__optional(ptr noundef %28, ptr noundef %31, ptr noundef %1, i64 noundef %2, ptr noundef %3)
  %33 = icmp slt i32 %32, 0
  br i1 %33, label %34, label %38

34:                                               ; preds = %27
  %35 = load i64, ptr @H5E_VOL_g, align 8, !tbaa !3
  %36 = load i64, ptr @H5E_CANTOPERATE_g, align 8, !tbaa !3
  %37 = tail call i32 (ptr, ptr, i32, i64, i64, ptr, ...) @H5E_printf_stack(ptr noundef nonnull @.str, ptr noundef nonnull @__func__.H5VL_optional, i32 noundef 8202, i64 noundef %35, i64 noundef %36, ptr noundef nonnull @.str.171) #7
  br label %38

38:                                               ; preds = %34, %27
  %39 = tail call i32 @H5VL_reset_vol_wrapper() #7
  %40 = icmp slt i32 %39, 0
  br i1 %40, label %41, label %45

41:                                               ; preds = %38
  %42 = load i64, ptr @H5E_VOL_g, align 8, !tbaa !3
  %43 = load i64, ptr @H5E_CANTRESET_g, align 8, !tbaa !3
  %44 = tail call i32 (ptr, ptr, i32, i64, i64, ptr, ...) @H5E_printf_stack(ptr noundef nonnull @.str, ptr noundef nonnull @__func__.H5VL_optional, i32 noundef 8207, i64 noundef %42, i64 noundef %43, ptr noundef nonnull @.str.26) #7
  br label %45

45:                                               ; preds = %13, %23, %38, %41, %17
  %.1 = phi i32 [ -1, %41 ], [ %32, %38 ], [ 0, %17 ], [ -1, %13 ], [ -1, %23 ]
  ret i32 %.1
}